#include <math.h>
#include <stdio.h>
#include <stdlib.h>
#include <string.h>
#define LEN 100
#define ASCII 100
#define MAX_N 100
#define MAX_M 100
#define MAX 100
#define ASC 100
#define null 0
#define Len 100
#define SUM 100
#define NUMBER 100
#define SIZE 100
#define Y 100
#define MAXN 100
#define MAXSIZE 100
#define maxrow 100
#define maxcol 100
#define mx 100
#define NUM 100
#define ROW 100
#define COL 100
#define SIZEE 100
#define MAX_LEN 100
#define LIU 100
#define maxsize 100
#define NUM 100
#define NO 100
#define Null 0
#define ID_DIGITS 100
#define INT_MAX 100
#define INT_MIN 100
#define FALSE 0
#define TRUE 1
#define max 100
#define hang 100
#define lie 100
#define row 100
#define col 100
#define number 100
#define M 100
int main()
{
    int m,i=0,a[max],p;
    float fz[max]={2,2},fm[max]={1,1},sum=2;
    scanf("%d",&m);
    for(i=0;i<m;i++){
       scanf("%d",&a[i]);
    }
    for(i=0;i<m;i++){
		for(p=0;p<2;p++){
		   fz[p]=2;
		   fm[p]=1;
		}
		sum=2;
       for(p=2;p<=a[i];p++){
       fz[p]=fz[p-1]+fm[p-1];
       fm[p]=fz[p-1];
       sum+=fz[p]/fm[p];
   } printf("%.3f\n",sum);
} 
   
return 0;
}